; Function Attrs: mustprogress nounwind uwtable
define internal fastcc void @_ZN12_GLOBAL__N_127TopLevelDeclTrackerConsumer19handleFileLevelDeclEPN5clang4DeclE(ptr noundef nonnull readonly align 8 captures(none) dereferenceable(32) %0, ptr noundef %1) unnamed_addr #0 align 2 {
  %3 = getelementptr inbounds nuw i8, ptr %0, i64 16
  %4 = load ptr, ptr %3, align 8
  tail call void @_ZN5clang7ASTUnit16addFileLevelDeclEPNS_4DeclE(ptr noundef nonnull align 8 dereferenceable(2056) %4, ptr noundef %1)
  %5 = getelementptr inbounds nuw i8, ptr %1, i64 28
  %6 = load i32, ptr %5, align 4
  %7 = and i32 %6, 127
  %8 = icmp ne i32 %7, 21
  %.not13 = icmp eq ptr %1, null
  %.not = or i1 %.not13, %8
  br i1 %.not, label %.loopexit, label %9

9:                                                ; preds = %2
  %10 = getelementptr inbounds nuw i8, ptr %1, i64 48
  %11 = tail call ptr @_ZNK5clang11DeclContext11decls_beginEv(ptr noundef nonnull align 8 dereferenceable(32) %10) #27
  %.not1415 = icmp eq ptr %11, null
  br i1 %.not1415, label %.loopexit, label %.lr.ph

.lr.ph:                                           ; preds = %9, %.lr.ph
  %.sroa.0.016 = phi ptr [ %14, %.lr.ph ], [ %11, %9 ]
  tail call fastcc void @_ZN12_GLOBAL__N_127TopLevelDeclTrackerConsumer19handleFileLevelDeclEPN5clang4DeclE(ptr noundef nonnull align 8 dereferenceable(32) %0, ptr noundef nonnull %.sroa.0.016)
  %12 = getelementptr inbounds nuw i8, ptr %.sroa.0.016, i64 8
  %.0.copyload.i.i.i.i.i = load i64, ptr %12, align 8
  %13 = and i64 %.0.copyload.i.i.i.i.i, -8
  %14 = inttoptr i64 %13 to ptr
  %.not14 = icmp eq i64 %13, 0
  br i1 %.not14, label %.loopexit, label %.lr.ph

.loopexit:                                        ; preds = %.lr.ph, %9, %2
  ret void
}